target datalayout = "e-m:e-p270:32:32-p271:32:32-p272:64:64-i64:64-i128:128-f80:128-n8:16:32:64-S128"
target triple = "x86_64-pc-linux-gnu"

%struct.varattrib_1b = type { i8, [0 x i8] }
%struct.anon = type { i32, [0 x i8] }
%struct.inet_struct = type { i8, i8, [16 x i8] }

@.str.1 = private unnamed_addr constant [10 x i8] c"network.c\00", align 1
@.str.10 = private unnamed_addr constant [23 x i8] c"result is out of range\00", align 1
@__func__.internal_inetpl = private unnamed_addr constant [16 x i8] c"internal_inetpl\00", align 1

; Function Attrs: nounwind uwtable
define internal ptr @internal_inetpl(ptr noundef %0, i64 noundef %1) #0 {
  %3 = alloca ptr, align 8
  %4 = alloca i64, align 8
  %5 = alloca ptr, align 8
  %6 = alloca i32, align 4
  %7 = alloca ptr, align 8
  %8 = alloca ptr, align 8
  %9 = alloca i32, align 4
  store ptr %0, ptr %3, align 8
  store i64 %1, ptr %4, align 8
  call void @llvm.lifetime.start.p0(i64 8, ptr %5) #8
  %10 = call ptr @palloc0(i64 noundef 22)
  store ptr %10, ptr %5, align 8
  call void @llvm.lifetime.start.p0(i64 4, ptr %6) #8
  %11 = load ptr, ptr %3, align 8
  %12 = getelementptr inbounds nuw %struct.varattrib_1b, ptr %11, i32 0, i32 0
  %13 = load i8, ptr %12, align 1
  %14 = zext i8 %13 to i32
  %15 = and i32 %14, 1
  %16 = icmp eq i32 %15, 1
  br i1 %16, label %17, label %21

17:                                               ; preds = %2
  %18 = load ptr, ptr %3, align 8
  %19 = getelementptr inbounds nuw %struct.varattrib_1b, ptr %18, i32 0, i32 1
  %20 = getelementptr inbounds [0 x i8], ptr %19, i64 0, i64 0
  br label %25

21:                                               ; preds = %2
  %22 = load ptr, ptr %3, align 8
  %23 = getelementptr inbounds nuw %struct.anon, ptr %22, i32 0, i32 1
  %24 = getelementptr inbounds [0 x i8], ptr %23, i64 0, i64 0
  br label %25

25:                                               ; preds = %21, %17
  %26 = phi ptr [ %20, %17 ], [ %24, %21 ]
  %27 = getelementptr inbounds nuw %struct.inet_struct, ptr %26, i32 0, i32 0
  %28 = load i8, ptr %27, align 1
  %29 = zext i8 %28 to i32
  %30 = icmp eq i32 %29, 2
  %31 = select i1 %30, i32 4, i32 16
  store i32 %31, ptr %6, align 4
  call void @llvm.lifetime.start.p0(i64 8, ptr %7) #8
  %32 = load ptr, ptr %3, align 8
  %33 = getelementptr inbounds nuw %struct.varattrib_1b, ptr %32, i32 0, i32 0
  %34 = load i8, ptr %33, align 1
  %35 = zext i8 %34 to i32
  %36 = and i32 %35, 1
  %37 = icmp eq i32 %36, 1
  br i1 %37, label %38, label %42

38:                                               ; preds = %25
  %39 = load ptr, ptr %3, align 8
  %40 = getelementptr inbounds nuw %struct.varattrib_1b, ptr %39, i32 0, i32 1
  %41 = getelementptr inbounds [0 x i8], ptr %40, i64 0, i64 0
  br label %46

42:                                               ; preds = %25
  %43 = load ptr, ptr %3, align 8
  %44 = getelementptr inbounds nuw %struct.anon, ptr %43, i32 0, i32 1
  %45 = getelementptr inbounds [0 x i8], ptr %44, i64 0, i64 0
  br label %46

46:                                               ; preds = %42, %38
  %47 = phi ptr [ %41, %38 ], [ %45, %42 ]
  %48 = getelementptr inbounds nuw %struct.inet_struct, ptr %47, i32 0, i32 2
  %49 = getelementptr inbounds [16 x i8], ptr %48, i64 0, i64 0
  store ptr %49, ptr %7, align 8
  call void @llvm.lifetime.start.p0(i64 8, ptr %8) #8
  %50 = load ptr, ptr %5, align 8
  %51 = getelementptr inbounds nuw %struct.varattrib_1b, ptr %50, i32 0, i32 0
  %52 = load i8, ptr %51, align 1
  %53 = zext i8 %52 to i32
  %54 = and i32 %53, 1
  %55 = icmp eq i32 %54, 1
  br i1 %55, label %56, label %60

56:                                               ; preds = %46
  %57 = load ptr, ptr %5, align 8
  %58 = getelementptr inbounds nuw %struct.varattrib_1b, ptr %57, i32 0, i32 1
  %59 = getelementptr inbounds [0 x i8], ptr %58, i64 0, i64 0
  br label %64

60:                                               ; preds = %46
  %61 = load ptr, ptr %5, align 8
  %62 = getelementptr inbounds nuw %struct.anon, ptr %61, i32 0, i32 1
  %63 = getelementptr inbounds [0 x i8], ptr %62, i64 0, i64 0
  br label %64

64:                                               ; preds = %60, %56
  %65 = phi ptr [ %59, %56 ], [ %63, %60 ]
  %66 = getelementptr inbounds nuw %struct.inet_struct, ptr %65, i32 0, i32 2
  %67 = getelementptr inbounds [16 x i8], ptr %66, i64 0, i64 0
  store ptr %67, ptr %8, align 8
  call void @llvm.lifetime.start.p0(i64 4, ptr %9) #8
  store i32 0, ptr %9, align 4
  br label %68

68:                                               ; preds = %72, %64
  %69 = load i32, ptr %6, align 4
  %70 = add i32 %69, -1
  store i32 %70, ptr %6, align 4
  %71 = icmp sge i32 %70, 0
  br i1 %71, label %72, label %98

72:                                               ; preds = %68
  %73 = load ptr, ptr %7, align 8
  %74 = load i32, ptr %6, align 4
  %75 = sext i32 %74 to i64
  %76 = getelementptr inbounds i8, ptr %73, i64 %75
  %77 = load i8, ptr %76, align 1
  %78 = zext i8 %77 to i32
  %79 = load i64, ptr %4, align 8
  %80 = and i64 %79, 255
  %81 = trunc i64 %80 to i32
  %82 = add i32 %78, %81
  %83 = load i32, ptr %9, align 4
  %84 = add i32 %82, %83
  store i32 %84, ptr %9, align 4
  %85 = load i32, ptr %9, align 4
  %86 = and i32 %85, 255
  %87 = trunc i32 %86 to i8
  %88 = load ptr, ptr %8, align 8
  %89 = load i32, ptr %6, align 4
  %90 = sext i32 %89 to i64
  %91 = getelementptr inbounds i8, ptr %88, i64 %90
  store i8 %87, ptr %91, align 1
  %92 = load i32, ptr %9, align 4
  %93 = ashr i32 %92, 8
  store i32 %93, ptr %9, align 4
  %94 = load i64, ptr %4, align 8
  %95 = and i64 %94, -256
  store i64 %95, ptr %4, align 8
  %96 = load i64, ptr %4, align 8
  %97 = sdiv i64 %96, 256
  store i64 %97, ptr %4, align 8
  br label %68, !llvm.loop !20

98:                                               ; preds = %68
  %99 = load i64, ptr %4, align 8
  %100 = icmp eq i64 %99, 0
  br i1 %100, label %101, label %104

101:                                              ; preds = %98
  %102 = load i32, ptr %9, align 4
  %103 = icmp eq i32 %102, 0
  br i1 %103, label %122, label %104

104:                                              ; preds = %101, %98
  %105 = load i64, ptr %4, align 8
  %106 = icmp eq i64 %105, -1
  br i1 %106, label %107, label %110

107:                                              ; preds = %104
  %108 = load i32, ptr %9, align 4
  %109 = icmp eq i32 %108, 1
  br i1 %109, label %122, label %110

110:                                              ; preds = %107, %104
  br label %111

111:                                              ; preds = %110
  br i1 true, label %112, label %114

112:                                              ; preds = %111
  %113 = call zeroext i1 @errstart_cold(i32 noundef 21, ptr noundef null) #10
  br i1 %113, label %116, label %119

114:                                              ; preds = %111
  %115 = call zeroext i1 @errstart(i32 noundef 21, ptr noundef null)
  br i1 %115, label %116, label %119

116:                                              ; preds = %114, %112
  %117 = call i32 @errcode(i32 noundef 50331778)
  %118 = call i32 (ptr, ...) @errmsg(ptr noundef @.str.10)
  call void @errfinish(ptr noundef @.str.1, i32 noundef 1980, ptr noundef @__func__.internal_inetpl)
  br label %119

119:                                              ; preds = %116, %114, %112
  unreachable

120:                                              ; No predecessors!
  br label %121

121:                                              ; preds = %120
  br label %122

122:                                              ; preds = %121, %107, %101
  call void @llvm.lifetime.end.p0(i64 4, ptr %9) #8
  call void @llvm.lifetime.end.p0(i64 8, ptr %8) #8
  call void @llvm.lifetime.end.p0(i64 8, ptr %7) #8
  call void @llvm.lifetime.end.p0(i64 4, ptr %6) #8
  %123 = load ptr, ptr %3, align 8
  %124 = getelementptr inbounds nuw %struct.varattrib_1b, ptr %123, i32 0, i32 0
  %125 = load i8, ptr %124, align 1
  %126 = zext i8 %125 to i32
  %127 = and i32 %126, 1
  %128 = icmp eq i32 %127, 1
  br i1 %128, label %129, label %133

129:                                              ; preds = %122
  %130 = load ptr, ptr %3, align 8
  %131 = getelementptr inbounds nuw %struct.varattrib_1b, ptr %130, i32 0, i32 1
  %132 = getelementptr inbounds [0 x i8], ptr %131, i64 0, i64 0
  br label %137

133:                                              ; preds = %122
  %134 = load ptr, ptr %3, align 8
  %135 = getelementptr inbounds nuw %struct.anon, ptr %134, i32 0, i32 1
  %136 = getelementptr inbounds [0 x i8], ptr %135, i64 0, i64 0
  br label %137

137:                                              ; preds = %133, %129
  %138 = phi ptr [ %132, %129 ], [ %136, %133 ]
  %139 = getelementptr inbounds nuw %struct.inet_struct, ptr %138, i32 0, i32 1
  %140 = load i8, ptr %139, align 1
  %141 = load ptr, ptr %5, align 8
  %142 = getelementptr inbounds nuw %struct.varattrib_1b, ptr %141, i32 0, i32 0
  %143 = load i8, ptr %142, align 1
  %144 = zext i8 %143 to i32
  %145 = and i32 %144, 1
  %146 = icmp eq i32 %145, 1
  br i1 %146, label %147, label %151

147:                                              ; preds = %137
  %148 = load ptr, ptr %5, align 8
  %149 = getelementptr inbounds nuw %struct.varattrib_1b, ptr %148, i32 0, i32 1
  %150 = getelementptr inbounds [0 x i8], ptr %149, i64 0, i64 0
  br label %155

151:                                              ; preds = %137
  %152 = load ptr, ptr %5, align 8
  %153 = getelementptr inbounds nuw %struct.anon, ptr %152, i32 0, i32 1
  %154 = getelementptr inbounds [0 x i8], ptr %153, i64 0, i64 0
  br label %155

155:                                              ; preds = %151, %147
  %156 = phi ptr [ %150, %147 ], [ %154, %151 ]
  %157 = getelementptr inbounds nuw %struct.inet_struct, ptr %156, i32 0, i32 1
  store i8 %140, ptr %157, align 1
  %158 = load ptr, ptr %3, align 8
  %159 = getelementptr inbounds nuw %struct.varattrib_1b, ptr %158, i32 0, i32 0
  %160 = load i8, ptr %159, align 1
  %161 = zext i8 %160 to i32
  %162 = and i32 %161, 1
  %163 = icmp eq i32 %162, 1
  br i1 %163, label %164, label %168

164:                                              ; preds = %155
  %165 = load ptr, ptr %3, align 8
  %166 = getelementptr inbounds nuw %struct.varattrib_1b, ptr %165, i32 0, i32 1
  %167 = getelementptr inbounds [0 x i8], ptr %166, i64 0, i64 0
  br label %172

168:                                              ; preds = %155
  %169 = load ptr, ptr %3, align 8
  %170 = getelementptr inbounds nuw %struct.anon, ptr %169, i32 0, i32 1
  %171 = getelementptr inbounds [0 x i8], ptr %170, i64 0, i64 0
  br label %172

172:                                              ; preds = %168, %164
  %173 = phi ptr [ %167, %164 ], [ %171, %168 ]
  %174 = getelementptr inbounds nuw %struct.inet_struct, ptr %173, i32 0, i32 0
  %175 = load i8, ptr %174, align 1
  %176 = load ptr, ptr %5, align 8
  %177 = getelementptr inbounds nuw %struct.varattrib_1b, ptr %176, i32 0, i32 0
  %178 = load i8, ptr %177, align 1
  %179 = zext i8 %178 to i32
  %180 = and i32 %179, 1
  %181 = icmp eq i32 %180, 1
  br i1 %181, label %182, label %186

182:                                              ; preds = %172
  %183 = load ptr, ptr %5, align 8
  %184 = getelementptr inbounds nuw %struct.varattrib_1b, ptr %183, i32 0, i32 1
  %185 = getelementptr inbounds [0 x i8], ptr %184, i64 0, i64 0
  br label %190

186:                                              ; preds = %172
  %187 = load ptr, ptr %5, align 8
  %188 = getelementptr inbounds nuw %struct.anon, ptr %187, i32 0, i32 1
  %189 = getelementptr inbounds [0 x i8], ptr %188, i64 0, i64 0
  br label %190

190:                                              ; preds = %186, %182
  %191 = phi ptr [ %185, %182 ], [ %189, %186 ]
  %192 = getelementptr inbounds nuw %struct.inet_struct, ptr %191, i32 0, i32 0
  store i8 %175, ptr %192, align 1
  %193 = load ptr, ptr %5, align 8
  %194 = getelementptr inbounds nuw %struct.varattrib_1b, ptr %193, i32 0, i32 0
  %195 = load i8, ptr %194, align 1
  %196 = zext i8 %195 to i32
  %197 = and i32 %196, 1
  %198 = icmp eq i32 %197, 1
  br i1 %198, label %199, label %203

199:                                              ; preds = %190
  %200 = load ptr, ptr %5, align 8
  %201 = getelementptr inbounds nuw %struct.varattrib_1b, ptr %200, i32 0, i32 1
  %202 = getelementptr inbounds [0 x i8], ptr %201, i64 0, i64 0
  br label %207

203:                                              ; preds = %190
  %204 = load ptr, ptr %5, align 8
  %205 = getelementptr inbounds nuw %struct.anon, ptr %204, i32 0, i32 1
  %206 = getelementptr inbounds [0 x i8], ptr %205, i64 0, i64 0
  br label %207

207:                                              ; preds = %203, %199
  %208 = phi ptr [ %202, %199 ], [ %206, %203 ]
  %209 = getelementptr inbounds nuw %struct.inet_struct, ptr %208, i32 0, i32 0
  %210 = load i8, ptr %209, align 1
  %211 = zext i8 %210 to i32
  %212 = icmp eq i32 %211, 2
  %213 = select i1 %212, i32 4, i32 16
  %214 = sext i32 %213 to i64
  %215 = add i64 6, %214
  %216 = trunc i64 %215 to i32
  %217 = shl i32 %216, 2
  %218 = load ptr, ptr %5, align 8
  %219 = getelementptr inbounds nuw %struct.anon, ptr %218, i32 0, i32 0
  store i32 %217, ptr %219, align 4
  %220 = load ptr, ptr %5, align 8
  call void @llvm.lifetime.end.p0(i64 8, ptr %5) #8
  ret ptr %220
}