; Function Attrs: nounwind uwtable
define internal fastcc noundef ptr @internal_inetpl(ptr noundef readonly captures(none) %0, i64 noundef %1) unnamed_addr #0 {
.lr.ph.preheader:
  %2 = tail call ptr @palloc0(i64 noundef 22) #14
  %3 = load i8, ptr %0, align 1
  %4 = and i8 %3, 1
  %.not = icmp eq i8 %4, 0
  %5 = getelementptr inbounds nuw i8, ptr %0, i64 1
  %6 = getelementptr inbounds nuw i8, ptr %0, i64 4
  %7 = select i1 %.not, ptr %6, ptr %5
  %8 = getelementptr inbounds nuw i8, ptr %7, i64 2
  %9 = load i8, ptr %2, align 1
  %10 = and i8 %9, 1
  %.not46 = icmp eq i8 %10, 0
  %11 = getelementptr inbounds nuw i8, ptr %2, i64 1
  %12 = getelementptr inbounds nuw i8, ptr %2, i64 4
  %13 = select i1 %.not46, ptr %12, ptr %11
  %14 = getelementptr inbounds nuw i8, ptr %13, i64 2
  %15 = load i8, ptr %7, align 1
  %16 = icmp eq i8 %15, 2
  %17 = select i1 %16, i64 3, i64 15
  br label %.lr.ph

.lr.ph:                                           ; preds = %.lr.ph.preheader, %.lr.ph
  %indvars.iv = phi i64 [ %17, %.lr.ph.preheader ], [ %indvars.iv.next, %.lr.ph ]
  %.053 = phi i32 [ 0, %.lr.ph.preheader ], [ %27, %.lr.ph ]
  %.04352 = phi i64 [ %1, %.lr.ph.preheader ], [ %28, %.lr.ph ]
  %18 = getelementptr inbounds nuw i8, ptr %8, i64 %indvars.iv
  %19 = load i8, ptr %18, align 1
  %20 = zext i8 %19 to i32
  %21 = trunc i64 %.04352 to i32
  %22 = and i32 %21, 255
  %23 = add nuw nsw i32 %22, %.053
  %24 = add nuw nsw i32 %23, %20
  %25 = trunc i32 %24 to i8
  %26 = getelementptr inbounds nuw i8, ptr %14, i64 %indvars.iv
  store i8 %25, ptr %26, align 1
  %27 = lshr i32 %24, 8
  %28 = ashr i64 %.04352, 8
  %indvars.iv.next = add nsw i64 %indvars.iv, -1
  %.not59 = icmp eq i64 %indvars.iv, 0
  br i1 %.not59, label %._crit_edge, label %.lr.ph, !llvm.loop !33

._crit_edge:                                      ; preds = %.lr.ph
  %29 = icmp ult i64 %.04352, 256
  %30 = icmp samesign ult i32 %24, 256
  %or.cond = select i1 %29, i1 %30, i1 false
  br i1 %or.cond, label %38, label %31

31:                                               ; preds = %._crit_edge
  %32 = icmp eq i64 %28, -1
  %33 = icmp eq i32 %27, 1
  %or.cond3 = select i1 %32, i1 %33, i1 false
  br i1 %or.cond3, label %38, label %34

34:                                               ; preds = %31
  %35 = tail call zeroext i1 @errstart_cold(i32 noundef 21, ptr noundef null) #16
  tail call void @llvm.assume(i1 %35)
  %36 = tail call i32 @errcode(i32 noundef 50331778) #14
  %37 = tail call i32 (ptr, ...) @errmsg(ptr noundef nonnull @.str.10) #14
  tail call void @errfinish(ptr noundef nonnull @.str.1, i32 noundef 1980, ptr noundef nonnull @__func__.internal_inetpl) #14
  unreachable

38:                                               ; preds = %31, %._crit_edge
  %39 = load i8, ptr %0, align 1
  %40 = and i8 %39, 1
  %.not47 = icmp eq i8 %40, 0
  %41 = select i1 %.not47, ptr %6, ptr %5
  %42 = getelementptr inbounds nuw i8, ptr %41, i64 1
  %43 = load i8, ptr %42, align 1
  %44 = load i8, ptr %2, align 1
  %45 = and i8 %44, 1
  %.not48 = icmp eq i8 %45, 0
  %46 = select i1 %.not48, ptr %12, ptr %11
  %47 = getelementptr inbounds nuw i8, ptr %46, i64 1
  store i8 %43, ptr %47, align 1
  %48 = load i8, ptr %0, align 1
  %49 = and i8 %48, 1
  %.not49 = icmp eq i8 %49, 0
  %50 = select i1 %.not49, ptr %6, ptr %5
  %51 = load i8, ptr %50, align 1
  %52 = load i8, ptr %2, align 1
  %53 = and i8 %52, 1
  %.not50 = icmp eq i8 %53, 0
  %54 = select i1 %.not50, ptr %12, ptr %11
  store i8 %51, ptr %54, align 1
  %55 = icmp eq i8 %51, 2
  %56 = select i1 %55, i32 40, i32 88
  store i32 %56, ptr %2, align 4
  ret ptr %2
}